TN:
SF:/home/orelshalem/final-project-OS-activeobject/client/src/Client.cpp
FN:8,_ZN6ClientC2ERKNSt7__cxx1112basic_stringIcSt11char_traitsIcESaIcEEEi
FN:10,_ZN6Client7connectEv
FN:35,_ZN6Client10disconnectEv
FN:45,_ZN6Client11sendRequestERKNSt7__cxx1112basic_stringIcSt11char_traitsIcESaIcEEE
FNDA:5,_ZN6ClientC2ERKNSt7__cxx1112basic_stringIcSt11char_traitsIcESaIcEEEi
FNDA:0,_ZN6Client10disconnectEv
FNDA:127,_ZN6Client11sendRequestERKNSt7__cxx1112basic_stringIcSt11char_traitsIcESaIcEEE
FNDA:5,_ZN6Client7connectEv
FNF:4
FNH:3
DA:8,5
DA:10,5
DA:12,5
DA:13,5
DA:15,0
DA:19,5
DA:20,5
DA:22,5
DA:24,0
DA:27,5
DA:29,0
DA:32,5
DA:33,5
DA:35,0
DA:37,0
DA:39,0
DA:40,0
DA:41,0
DA:43,0
DA:45,127
DA:47,127
DA:49,0
DA:52,127
DA:53,127
DA:55,127
DA:56,127
DA:57,132
DA:58,122
LF:28
LH:18
end_of_record
TN:
SF:/home/orelshalem/final-project-OS-activeobject/client/src/main.cpp
FN:5,_Z9printHelpv
FN:18,main
FNDA:0,_Z9printHelpv
FNDA:1,main
FNF:2
FNH:1
DA:5,0
DA:15,0
DA:16,0
DA:18,1
DA:20,2
DA:24,1
DA:25,1
DA:29,33
DA:30,33
DA:31,33
DA:33,33
DA:35,0
DA:37,33
DA:39,0
DA:40,0
DA:43,33
DA:44,65
DA:46,0
DA:48,1
DA:50,1
DA:51,1
DA:52,1
DA:54,0
DA:55,1
LF:24
LH:16
end_of_record
TN:
SF:/home/orelshalem/final-project-OS-activeobject/common/Graph.cpp
FN:5,_ZN5GraphC2Ei
FN:13,_ZN5GraphD2Ev
FN:18,_ZN5Graph7addEdgeEiii
FN:28,_ZN5Graph9addVertexEv
FN:35,_ZN5Graph10removeEdgeEii
FN:46,_ZZN5Graph10removeEdgeEiiENKUlRK4EdgeE_clES2_
FN:49,_ZZN5Graph10removeEdgeEiiENKUlRK4EdgeE0_clES2_
FN:60,_ZN5Graph12removeVertexEi
FN:73,_ZZN5Graph12removeVertexEiENKUlRK4EdgeE_clES2_
FN:81,_ZN5Graph12changeWeightEiii
FN:92,_ZZN5Graph12changeWeightEiiiENKUlRK4EdgeE_clES2_
FN:95,_ZZN5Graph12changeWeightEiiiENKUlRK4EdgeE0_clES2_
FN:109,_ZNK5Graph16getAdjacentEdgesEi
FN:119,_ZNK5Graph11getVerticesEv
FN:124,_ZNK5Graph8getEdgesEv
FNDA:39,_ZN5GraphC2Ei
FNDA:0,_ZN5Graph12removeVertexEi
FNDA:0,_ZN5Graph12changeWeightEiii
FNDA:0,_ZN5Graph10removeEdgeEii
FNDA:39,_ZN5GraphD2Ev
FNDA:0,_ZZN5Graph10removeEdgeEiiENKUlRK4EdgeE0_clES2_
FNDA:0,_ZN5Graph7addEdgeEiii
FNDA:1,_ZNK5Graph16getAdjacentEdgesEi
FNDA:3,_ZNK5Graph11getVerticesEv
FNDA:0,_ZZN5Graph12removeVertexEiENKUlRK4EdgeE_clES2_
FNDA:0,_ZZN5Graph12changeWeightEiiiENKUlRK4EdgeE0_clES2_
FNDA:0,_ZZN5Graph12changeWeightEiiiENKUlRK4EdgeE_clES2_
FNDA:0,_ZNK5Graph8getEdgesEv
FNDA:1,_ZN5Graph9addVertexEv
FNDA:0,_ZZN5Graph10removeEdgeEiiENKUlRK4EdgeE_clES2_
FNF:15
FNH:5
DA:5,39
DA:7,39
DA:9,0
DA:11,39
DA:13,39
DA:15,39
DA:16,39
DA:18,0
DA:20,0
DA:22,0
DA:24,0
DA:25,0
DA:26,0
DA:28,1
DA:30,1
DA:31,1
DA:32,1
DA:35,0
DA:37,0
DA:39,0
DA:42,0
DA:43,0
DA:45,0
DA:46,0
DA:47,0
DA:48,0
DA:49,0
DA:50,0
DA:52,0
DA:54,0
DA:55,0
DA:57,0
DA:60,0
DA:62,0
DA:64,0
DA:67,0
DA:69,0
DA:71,0
DA:72,0
DA:73,0
DA:74,0
DA:75,0
DA:78,0
DA:81,0
DA:83,0
DA:85,0
DA:88,0
DA:89,0
DA:91,0
DA:92,0
DA:93,0
DA:94,0
DA:95,0
DA:96,0
DA:98,0
DA:100,0
DA:103,0
DA:104,0
DA:106,0
DA:109,1
DA:111,1
DA:112,1
DA:114,1
DA:116,0
DA:119,3
DA:121,3
DA:124,0
DA:126,0
DA:127,0
DA:129,0
DA:131,0
LF:71
LH:16
end_of_record
TN:
SF:/home/orelshalem/final-project-OS-activeobject/common/Graph.hpp
FN:8,_ZN4EdgeC2Eiii
FN:11,_ZNK4EdgeltERKS_
FNDA:0,_ZNK4EdgeltERKS_
FNDA:0,_ZN4EdgeC2Eiii
FNF:2
FNH:0
DA:8,0
DA:11,0
DA:13,0
LF:3
LH:0
end_of_record
TN:
SF:/home/orelshalem/final-project-OS-activeobject/common/KruskalMST.cpp
FN:11,_ZN10KruskalMST7findMSTERK5Graph
FN:35,_ZZN10KruskalMST7findMSTERK5GraphENKUliE_clEi
FN:45,_ZZN10KruskalMST7findMSTERK5GraphENKUliiE0_clEii
FNDA:0,_ZZN10KruskalMST7findMSTERK5GraphENKUliE_clEi
FNDA:0,_ZZN10KruskalMST7findMSTERK5GraphENKUliiE0_clEii
FNDA:0,_ZN10KruskalMST7findMSTERK5Graph
FNF:3
FNH:0
DA:11,0
DA:13,0
DA:14,0
DA:15,0
DA:18,0
DA:20,0
DA:21,0
DA:22,0
DA:25,0
DA:28,0
DA:29,0
DA:31,0
DA:35,0
DA:37,0
DA:39,0
DA:41,0
DA:42,0
DA:45,0
DA:47,0
DA:48,0
DA:49,0
DA:51,0
DA:53,0
DA:56,0
DA:58,0
DA:59,0
DA:61,0
DA:63,0
DA:64,0
DA:67,0
DA:69,0
DA:73,0
DA:74,0
LF:33
LH:0
end_of_record
TN:
SF:/home/orelshalem/final-project-OS-activeobject/common/MST.hpp
FN:11,_ZN3MSTD0Ev
FN:11,_ZN3MSTD2Ev
FNDA:0,_ZN3MSTD2Ev
FNDA:0,_ZN3MSTD0Ev
FNF:2
FNH:0
DA:11,0
LF:1
LH:0
end_of_record
TN:
SF:/home/orelshalem/final-project-OS-activeobject/common/MSTFactory.cpp
FN:11,_ZN10MSTFactory9createMSTERKNSt7__cxx1112basic_stringIcSt11char_traitsIcESaIcEEE
FNDA:0,_ZN10MSTFactory9createMSTERKNSt7__cxx1112basic_stringIcSt11char_traitsIcESaIcEEE
FNF:1
FNH:0
DA:11,0
DA:13,0
DA:14,0
DA:15,0
DA:17,0
DA:19,0
DA:21,0
DA:23,0
DA:27,0
DA:28,0
DA:30,0
LF:11
LH:0
end_of_record
TN:
SF:/home/orelshalem/final-project-OS-activeobject/common/MSTMetrics.cpp
FN:13,_ZNK10MSTMetrics14getTotalWeightERKSt6vectorI4EdgeSaIS1_EE
FN:26,_ZNK10MSTMetrics18getLongestDistanceERK5GraphRKSt6vectorI4EdgeSaIS4_EE
FN:83,_ZNK10MSTMetrics18getAverageDistanceERK5GraphRKSt6vectorI4EdgeSaIS4_EE
FN:136,_ZNK10MSTMetrics19getShortestDistanceERKSt6vectorI4EdgeSaIS1_EE
FNDA:0,_ZNK10MSTMetrics18getLongestDistanceERK5GraphRKSt6vectorI4EdgeSaIS4_EE
FNDA:0,_ZNK10MSTMetrics18getAverageDistanceERK5GraphRKSt6vectorI4EdgeSaIS4_EE
FNDA:0,_ZNK10MSTMetrics14getTotalWeightERKSt6vectorI4EdgeSaIS1_EE
FNDA:0,_ZNK10MSTMetrics19getShortestDistanceERKSt6vectorI4EdgeSaIS1_EE
FNF:4
FNH:0
DA:13,0
DA:15,0
DA:16,0
DA:18,0
DA:20,0
DA:23,0
DA:26,0
DA:28,0
DA:30,0
DA:31,0
DA:34,0
DA:35,0
DA:38,0
DA:40,0
DA:41,0
DA:43,0
DA:44,0
DA:46,0
DA:47,0
DA:51,0
DA:53,0
DA:55,0
DA:57,0
DA:58,0
DA:59,0
DA:61,0
DA:68,0
DA:69,0
DA:71,0
DA:73,0
DA:75,0
DA:80,0
DA:81,0
DA:83,0
DA:85,0
DA:87,0
DA:90,0
DA:91,0
DA:94,0
DA:96,0
DA:97,0
DA:101,0
DA:103,0
DA:105,0
DA:107,0
DA:108,0
DA:109,0
DA:111,0
DA:118,0
DA:119,0
DA:120,0
DA:122,0
DA:124,0
DA:126,0
DA:127,0
DA:133,0
DA:134,0
DA:136,0
DA:138,0
DA:139,0
DA:141,0
DA:142,0
DA:145,0
DA:147,0
DA:148,0
DA:152,0
DA:154,0
DA:156,0
DA:158,0
DA:159,0
DA:160,0
DA:162,0
DA:169,0
DA:170,0
DA:172,0
DA:174,0
DA:176,0
DA:181,0
DA:182,0
LF:79
LH:0
end_of_record
TN:
SF:/home/orelshalem/final-project-OS-activeobject/common/PrimMST.cpp
FN:8,_ZN7PrimMST7findMSTERK5Graph
FNDA:0,_ZN7PrimMST7findMSTERK5Graph
FNF:1
FNH:0
DA:8,0
DA:10,0
DA:11,0
DA:12,0
DA:14,0
DA:16,0
DA:17,0
DA:20,0
DA:21,0
DA:22,0
DA:24,0
DA:26,0
DA:27,0
DA:28,0
DA:30,0
DA:32,0
DA:33,0
DA:35,0
DA:36,0
DA:38,0
DA:40,0
DA:42,0
DA:43,0
DA:46,0
DA:48,0
DA:49,0
DA:51,0
DA:53,0
DA:55,0
DA:56,0
DA:57,0
DA:58,0
DA:60,0
DA:63,0
DA:64,0
DA:65,0
LF:36
LH:0
end_of_record
TN:
SF:/home/orelshalem/final-project-OS-activeobject/server/src/ActiveObject.cpp
FN:4,_ZN12ActiveObjectC2Ev
FN:6,_ZN12ActiveObjectD2Ev
FN:11,_ZN12ActiveObject7enqueueESt8functionIFvvEE
FN:20,_ZN12ActiveObject5startEv
FN:33,_ZN12ActiveObject4stopEv
FN:50,_ZN12ActiveObject3runEv
FN:57,_ZZN12ActiveObject3runEvENKUlvE_clEv
FNDA:1,_ZN12ActiveObject3runEv
FNDA:2,_ZZN12ActiveObject3runEvENKUlvE_clEv
FNDA:1,_ZN12ActiveObject5startEv
FNDA:39,_ZN12ActiveObjectC2Ev
FNDA:79,_ZN12ActiveObject4stopEv
FNDA:0,_ZN12ActiveObject7enqueueESt8functionIFvvEE
FNDA:39,_ZN12ActiveObjectD2Ev
FNF:7
FNH:6
DA:4,39
DA:6,39
DA:8,39
DA:9,39
DA:11,0
DA:14,0
DA:15,0
DA:16,0
DA:17,0
DA:18,0
DA:20,1
DA:23,1
DA:24,1
DA:26,0
DA:28,1
DA:29,1
DA:30,1
DA:33,79
DA:36,79
DA:37,79
DA:39,78
DA:41,1
DA:42,79
DA:43,1
DA:44,1
DA:46,1
DA:50,1
DA:54,1
DA:56,1
DA:57,1
DA:58,2
DA:59,1
DA:61,1
DA:63,0
DA:65,0
DA:66,0
DA:68,1
DA:69,0
DA:73,0
DA:75,0
DA:77,0
DA:78,0
DA:79,0
DA:81,0
DA:82,0
DA:84,1
DA:85,1
LF:47
LH:29
end_of_record
TN:
SF:/home/orelshalem/final-project-OS-activeobject/server/src/GraphManager.cpp
FN:5,_ZN12GraphManagerC2Ev
FN:7,_ZN12GraphManagerD2Ev
FN:13,_ZN12GraphManager9addVertexEv
FN:19,_ZN12GraphManager7addEdgeEiii
FN:25,_ZN12GraphManager12removeVertexEi
FN:31,_ZN12GraphManager10removeEdgeEii
FN:37,_ZNK12GraphManager8getGraphEv
FN:43,_ZNK12GraphManager14getGraphStringB5cxx11Ev
FNDA:39,_ZN12GraphManagerD2Ev
FNDA:0,_ZN12GraphManager12removeVertexEi
FNDA:0,_ZN12GraphManager10removeEdgeEii
FNDA:0,_ZN12GraphManager7addEdgeEiii
FNDA:0,_ZNK12GraphManager8getGraphEv
FNDA:39,_ZN12GraphManagerC2Ev
FNDA:1,_ZN12GraphManager9addVertexEv
FNDA:1,_ZNK12GraphManager14getGraphStringB5cxx11Ev
FNF:8
FNH:4
DA:5,39
DA:7,39
DA:10,39
DA:11,39
DA:13,1
DA:15,1
DA:16,1
DA:17,1
DA:19,0
DA:21,0
DA:22,0
DA:23,0
DA:25,0
DA:27,0
DA:28,0
DA:29,0
DA:31,0
DA:33,0
DA:34,0
DA:35,0
DA:37,0
DA:39,0
DA:40,0
DA:41,0
DA:43,1
DA:45,1
DA:46,1
DA:47,1
DA:48,1
DA:49,2
DA:51,1
DA:52,1
DA:53,1
DA:54,1
DA:56,0
DA:58,1
DA:59,2
DA:60,1
LF:38
LH:21
end_of_record
TN:
SF:/home/orelshalem/final-project-OS-activeobject/server/src/Pipeline.cpp
FN:7,_ZN8PipelineC2ER12GraphManager
FN:12,_ZN8PipelineD2Ev
FN:17,_ZN8Pipeline5startEv
FN:25,_ZN8Pipeline4stopEv
FN:33,_ZN8Pipeline16calculateMetricsERK5GraphRKSt6vectorI4EdgeSaIS4_EESt8functionIFvRKNSt7__cxx1112basic_stringIcSt11char_traitsIcESaIcEEEEE
FN:35,_ZZN8Pipeline16calculateMetricsERK5GraphRKSt6vectorI4EdgeSaIS4_EESt8functionIFvRKNSt7__cxx1112basic_stringIcSt11char_traitsIcESaIcEEEEEENKUlvE_clEv
FN:100,_ZN8Pipeline16getMetricsStringB5cxx11ERK10MSTMetricsRK5GraphRKSt6vectorI4EdgeSaIS7_EE
FNDA:1,_ZN8Pipeline5startEv
FNDA:0,_ZN8Pipeline16getMetricsStringB5cxx11ERK10MSTMetricsRK5GraphRKSt6vectorI4EdgeSaIS7_EE
FNDA:39,_ZN8PipelineD2Ev
FNDA:40,_ZN8Pipeline4stopEv
FNDA:0,_ZZN8Pipeline16calculateMetricsERK5GraphRKSt6vectorI4EdgeSaIS4_EESt8functionIFvRKNSt7__cxx1112basic_stringIcSt11char_traitsIcESaIcEEEEEENKUlvE_clEv
FNDA:0,_ZN8Pipeline16calculateMetricsERK5GraphRKSt6vectorI4EdgeSaIS4_EESt8functionIFvRKNSt7__cxx1112basic_stringIcSt11char_traitsIcESaIcEEEEE
FNDA:39,_ZN8PipelineC2ER12GraphManager
FNF:7
FNH:4
DA:7,39
DA:9,39
DA:10,39
DA:12,39
DA:14,39
DA:15,39
DA:17,1
DA:19,2
DA:21,1
DA:23,1
DA:25,40
DA:27,80
DA:29,40
DA:31,40
DA:33,0
DA:35,0
DA:39,0
DA:40,0
DA:41,0
DA:42,0
DA:43,0
DA:45,0
DA:47,0
DA:48,0
DA:49,0
DA:50,0
DA:51,0
DA:54,0
DA:55,0
DA:56,0
DA:58,0
DA:60,0
DA:64,0
DA:65,0
DA:66,0
DA:67,0
DA:70,0
DA:71,0
DA:72,0
DA:73,0
DA:74,0
DA:75,0
DA:77,0
DA:78,0
DA:79,0
DA:80,0
DA:81,0
DA:82,0
DA:85,0
DA:86,0
DA:87,0
DA:88,0
DA:89,0
DA:90,0
DA:91,0
DA:92,0
DA:93,0
DA:94,0
DA:95,0
DA:96,0
DA:97,0
DA:98,0
DA:100,0
DA:102,0
DA:103,0
DA:104,0
DA:105,0
DA:106,0
DA:107,0
DA:108,0
LF:70
LH:14
end_of_record
TN:
SF:/home/orelshalem/final-project-OS-activeobject/server/src/Server.cpp
FN:28,_ZN6ServerC2Ei
FN:30,_ZN6ServerD2Ev
FN:35,_ZN6Server5startEv
FN:103,_ZN6Server4stopEv
FN:166,_ZN6Server12handleClientEi
FN:194,_ZZN6Server12handleClientEiENKUlRKNSt7__cxx1112basic_stringIcSt11char_traitsIcESaIcEEEE_clES7_
FN:406,_ZN6Server12getMSTStringERKSt6vectorI4EdgeSaIS1_EERKNSt7__cxx1112basic_stringIcSt11char_traitsIcESaIcEEE
FN:425,_ZZN6Server12getMSTStringERKSt6vectorI4EdgeSaIS1_EERKNSt7__cxx1112basic_stringIcSt11char_traitsIcESaIcEEEENKUliiSB_SB_bE_clEiiSB_SB_b
FN:432,_ZZZN6Server12getMSTStringERKSt6vectorI4EdgeSaIS1_EERKNSt7__cxx1112basic_stringIcSt11char_traitsIcESaIcEEEENKUliiSB_SB_bE_clEiiSB_SB_bENKUlRKT_E_clISt4pairIiiEEEDaSH_
FN:467,_ZN6Server13acceptClientsEv
FNDA:0,_ZZZN6Server12getMSTStringERKSt6vectorI4EdgeSaIS1_EERKNSt7__cxx1112basic_stringIcSt11char_traitsIcESaIcEEEENKUliiSB_SB_bE_clEiiSB_SB_bENKUlRKT_E_clISt4pairIiiEEEDaSH_
FNDA:39,_ZN6Server5startEv
FNDA:1,_ZN6Server13acceptClientsEv
FNDA:40,_ZN6Server4stopEv
FNDA:0,_ZZN6Server12getMSTStringERKSt6vectorI4EdgeSaIS1_EERKNSt7__cxx1112basic_stringIcSt11char_traitsIcESaIcEEEENKUliiSB_SB_bE_clEiiSB_SB_b
FNDA:39,_ZN6ServerD2Ev
FNDA:0,_ZN6Server12getMSTStringERKSt6vectorI4EdgeSaIS1_EERKNSt7__cxx1112basic_stringIcSt11char_traitsIcESaIcEEE
FNDA:39,_ZN6ServerC2Ei
FNDA:1,_ZZN6Server12handleClientEiENKUlRKNSt7__cxx1112basic_stringIcSt11char_traitsIcESaIcEEEE_clES7_
FNDA:1,_ZN6Server12handleClientEi
FNF:10
FNH:7
DA:28,39
DA:30,39
DA:32,39
DA:33,39
DA:35,39
DA:38,39
DA:39,39
DA:40,39
DA:42,39
DA:43,39
DA:45,0
DA:46,0
DA:47,0
DA:48,0
DA:50,39
DA:51,39
DA:53,0
DA:54,0
DA:55,0
DA:56,0
DA:57,0
DA:60,39
DA:61,39
DA:62,39
DA:64,39
DA:66,38
DA:67,38
DA:68,38
DA:69,38
DA:70,38
DA:72,1
DA:74,0
DA:75,0
DA:76,0
DA:77,0
DA:78,0
DA:81,1
DA:82,1
DA:83,1
DA:86,1
DA:87,1
DA:88,1
DA:90,1
DA:93,1
DA:94,1
DA:95,1
DA:98,1
DA:99,1
DA:100,1
DA:103,40
DA:106,40
DA:107,40
DA:109,39
DA:111,1
DA:112,40
DA:115,1
DA:116,1
DA:117,1
DA:120,1
DA:122,1
DA:123,1
DA:124,1
DA:128,1
DA:130,1
DA:135,1
DA:136,1
DA:138,0
DA:139,0
DA:141,1
DA:142,1
DA:146,1
DA:147,2
DA:149,1
DA:151,1
DA:154,1
DA:155,1
DA:158,1
DA:161,1
DA:162,1
DA:163,1
DA:166,1
DA:169,1
DA:170,1
DA:171,1
DA:173,1
DA:174,2
DA:176,2
DA:177,2
DA:179,1
DA:180,1
DA:181,1
DA:182,1
DA:184,1
DA:186,1
DA:187,1
DA:188,1
DA:190,1
DA:191,1
DA:192,1
DA:194,2
DA:197,1
DA:198,1
DA:199,1
DA:200,1
DA:201,1
DA:204,1
DA:205,1
DA:206,1
DA:208,1
DA:210,0
DA:211,0
DA:214,0
DA:215,0
DA:216,0
DA:217,0
DA:219,0
DA:221,0
DA:222,0
DA:223,0
DA:225,0
DA:226,0
DA:227,0
DA:229,0
DA:230,0
DA:232,0
DA:233,0
DA:236,0
DA:238,0
DA:239,0
DA:240,0
DA:242,0
DA:243,0
DA:246,0
DA:247,0
DA:250,0
DA:255,0
DA:257,0
DA:258,1
DA:261,1
DA:262,1
DA:263,1
DA:265,1
DA:266,1
DA:267,1
DA:268,1
DA:270,0
DA:273,0
DA:276,0
DA:277,0
DA:278,0
DA:279,0
DA:283,0
DA:286,0
DA:289,0
DA:292,0
DA:293,0
DA:294,0
DA:295,0
DA:299,0
DA:302,0
DA:305,0
DA:308,0
DA:309,0
DA:310,0
DA:311,0
DA:315,0
DA:318,0
DA:320,0
DA:322,0
DA:323,0
DA:324,0
DA:325,0
DA:327,0
DA:331,0
DA:332,0
DA:334,0
DA:335,0
DA:339,0
DA:340,0
DA:341,0
DA:344,0
DA:345,0
DA:347,0
DA:348,0
DA:349,0
DA:351,0
DA:353,0
DA:354,0
DA:355,0
DA:357,0
DA:358,0
DA:360,0
DA:361,0
DA:364,0
DA:366,0
DA:367,0
DA:370,0
DA:371,0
DA:373,0
DA:375,0
DA:377,0
DA:378,0
DA:381,0
DA:382,0
DA:383,0
DA:386,0
DA:390,1
DA:391,1
DA:393,1
DA:395,1
DA:396,1
DA:397,1
DA:401,1
DA:402,1
DA:403,1
DA:404,1
DA:406,0
DA:408,0
DA:409,0
DA:411,0
DA:413,0
DA:414,0
DA:417,0
DA:418,0
DA:420,0
DA:421,0
DA:425,0
DA:427,0
DA:428,0
DA:430,0
DA:431,0
DA:432,0
DA:433,0
DA:434,0
DA:436,0
DA:441,0
DA:443,0
DA:445,0
DA:447,0
DA:448,0
DA:450,0
DA:451,0
DA:452,0
DA:453,0
DA:454,0
DA:458,0
DA:460,0
DA:462,0
DA:464,0
DA:465,0
DA:467,1
DA:469,3
DA:472,2
DA:473,2
DA:475,2
DA:477,1
DA:479,0
DA:480,0
DA:481,0
DA:482,1
DA:483,1
DA:486,1
DA:487,1
DA:488,1
DA:491,1
DA:492,1
DA:494,1
DA:495,1
DA:496,1
DA:498,1
LF:270
LH:128
end_of_record
TN:
SF:/home/orelshalem/final-project-OS-activeobject/server/src/Server.hpp
FN:16,_ZNK6Server9isRunningEv
FNDA:677,_ZNK6Server9isRunningEv
FNF:1
FNH:1
DA:16,677
LF:1
LH:1
end_of_record
TN:
SF:/home/orelshalem/final-project-OS-activeobject/server/src/main.cpp
FN:15,_Z13signalHandleri
FN:28,main
FNDA:39,main
FNDA:1,_Z13signalHandleri
FNF:2
FNH:2
DA:15,1
DA:18,1
DA:19,1
DA:20,1
DA:21,1
DA:22,1
DA:24,1
DA:26,1
DA:28,39
DA:32,39
DA:33,39
DA:36,39
DA:37,39
DA:40,39
DA:41,39
DA:42,39
DA:43,39
DA:45,638
DA:47,599
DA:50,39
DA:52,0
DA:56,39
DA:57,39
DA:58,0
DA:60,0
DA:61,0
DA:62,0
DA:63,0
DA:64,0
DA:66,0
DA:67,0
DA:68,0
DA:69,0
DA:72,39
DA:73,39
DA:74,39
DA:75,39
LF:37
LH:26
end_of_record
